(istatisticOrder
Learning
p1
(dp2
S'bestOrder'
p3
(lp4
I2
aI3
aI5
aI9
aI10
aI11
aI4
aI7
aI12
aI1
aI6
aI8
aI0
asS'sumOfOrders'
p5
(lp6
I0
aI11
aI1
aI22
aI44
aI26
aI50
aI48
aI35
aI31
aI25
aI21
aI9
asS'questions'
p7
(ibst
BST
p8
(dp9
S'root'
p10
(ibst
Node
p11
(dp12
S'leftChild'
p13
(ibst
Node
p14
(dp15
g13
NsS'rightChild'
p16
(ibst
Node
p17
(dp18
g13
Nsg16
NsS'val'
p19
(lp20
I00
aI01
aI01
aI01
aI01
aI01
aI01
aI01
aI00
aI01
aI01
aI00
aI01
asbsg19
(lp21
I00
aI01
aI01
aI01
aI01
aI01
aI01
aI01
aI01
aI01
aI01
aI01
aI01
asbsg16
(ibst
Node
p22
(dp23
g13
(ibst
Node
p24
(dp25
g13
(ibst
Node
p26
(dp27
g13
Nsg16
Nsg19
(lp28
I00
aI00
aI01
aI01
aI01
aI01
aI00
aI01
aI01
aI01
aI01
aI01
aI00
asbsg16
Nsg19
(lp29
I00
aI00
aI01
aI01
aI01
aI01
aI00
aI01
aI01
aI01
aI00
aI00
aI00
asbsg16
(ibst
Node
p30
(dp31
g13
(ibst
Node
p32
(dp33
g13
Nsg16
(ibst
Node
p34
(dp35
g13
Nsg16
Nsg19
(lp36
I00
aI00
aI01
aI01
aI00
aI01
aI01
aI00
aI01
aI00
aI00
aI00
aI00
asbsg19
(lp37
I00
aI00
aI01
aI01
aI00
aI01
aI01
aI01
aI00
aI01
aI00
aI01
aI00
asbsg16
(ibst
Node
p38
(dp39
g13
(ibst
Node
p40
(dp41
g13
Nsg16
Nsg19
(lp42
I00
aI00
aI00
aI01
aI01
aI00
aI01
aI01
aI00
aI01
aI01
aI00
aI00
asbsg16
(ibst
Node
p43
(dp44
g13
Nsg16
Nsg19
(lp45
I00
aI00
aI00
aI00
aI01
aI00
aI01
aI01
aI00
aI00
aI00
aI00
aI00
asbsg19
(lp46
I00
aI00
aI00
aI01
aI00
aI01
aI01
aI01
aI00
aI01
aI01
aI01
aI00
asbsg19
(lp47
I00
aI00
aI01
aI00
aI01
aI00
aI01
aI01
aI01
aI01
aI01
aI00
aI00
asbsg19
(lp48
I00
aI00
aI01
aI01
aI01
aI00
aI01
aI00
aI01
aI01
aI01
aI01
aI00
asbsg19
(lp49
I00
aI00
aI01
aI01
aI01
aI01
aI01
aI01
aI01
aI01
aI00
aI01
aI00
asbsbsS'numOfAppearance'
p50
(lp51
I0
aI2
aI9
aI10
aI9
aI8
aI10
aI10
aI7
aI10
aI7
aI6
aI2
asb.