(istatisticOrder
Learning
p1
(dp2
S'bestOrder'
p3
(lp4
I0
aI1
aI2
aI3
aI4
aI5
aI6
aI7
aI8
aI9
aI10
aI11
aI12
asS'sumOfOrders'
p5
(lp6
I0
aI0
aI0
aI0
aI0
aI0
aI0
aI0
aI0
aI0
aI0
aI0
aI0
asS'questions'
p7
(ibst
BST
p8
(dp9
S'root'
p10
NsbsS'numOfAppearance'
p11
(lp12
I0
aI0
aI0
aI0
aI0
aI0
aI0
aI0
aI0
aI0
aI0
aI0
aI0
asb.